; Function Attrs: nounwind uwtable
define hidden i32 @VP8GetCostLuma4(ptr nocapture noundef readonly %0, ptr noundef %1) local_unnamed_addr #2 {
  %3 = alloca %struct.VP8Residual, align 8
  %4 = getelementptr inbounds i8, ptr %0, i64 128
  %5 = load i32, ptr %4, align 8
  %6 = and i32 %5, 3
  %7 = ashr i32 %5, 2
  %8 = getelementptr inbounds i8, ptr %0, i64 40
  %9 = load ptr, ptr %8, align 8
  %10 = getelementptr inbounds i8, ptr %3, i64 16
  store i32 3, ptr %10, align 8
  %11 = getelementptr inbounds i8, ptr %9, i64 4412
  %12 = getelementptr inbounds i8, ptr %3, i64 24
  store ptr %11, ptr %12, align 8
  %13 = getelementptr inbounds i8, ptr %9, i64 7844
  %14 = getelementptr inbounds i8, ptr %3, i64 32
  store ptr %13, ptr %14, align 8
  %15 = getelementptr inbounds i8, ptr %9, i64 23112
  %16 = getelementptr inbounds i8, ptr %3, i64 40
  store ptr %15, ptr %16, align 8
  store i32 0, ptr %3, align 8
  %17 = getelementptr inbounds i8, ptr %0, i64 132
  %18 = zext nneg i32 %6 to i64
  %19 = getelementptr inbounds [9 x i32], ptr %17, i64 0, i64 %18
  %20 = load i32, ptr %19, align 4
  %21 = getelementptr inbounds i8, ptr %0, i64 168
  %22 = sext i32 %7 to i64
  %23 = getelementptr inbounds [9 x i32], ptr %21, i64 0, i64 %22
  %24 = load i32, ptr %23, align 4
  %25 = add nsw i32 %24, %20
  %26 = load ptr, ptr @VP8SetResidualCoeffs, align 8
  call void %26(ptr noundef %1, ptr noundef nonnull %3) #7
  %27 = load ptr, ptr @VP8GetResidualCost, align 8
  %28 = call i32 %27(i32 noundef %25, ptr noundef nonnull %3) #7
  ret i32 %28
}